target datalayout = "e-m:e-p270:32:32-p271:32:32-p272:64:64-i64:64-i128:128-f80:128-n8:16:32:64-S128"
target triple = "x86_64-pc-linux-gnu"

%"struct.ofbx::DataView" = type <{ ptr, ptr, i8, [7 x i8] }>
%"struct.ofbx::Object" = type { ptr, i64, [128 x i8], ptr, ptr, i8, ptr }
%"struct.ofbx::Element" = type { %"struct.ofbx::IElement", %"struct.ofbx::DataView", ptr, ptr, ptr }
%"struct.ofbx::IElement" = type { ptr }
%"struct.ofbx::Property" = type { %"struct.ofbx::IElementProperty", i32, i8, [3 x i8], %"struct.ofbx::DataView", ptr }
%"struct.ofbx::IElementProperty" = type { ptr }

@.str.3 = private unnamed_addr constant [14 x i8] c"RotationOrder\00", align 1
@.str.4 = private unnamed_addr constant [13 x i8] c"Properties70\00", align 1

; Function Attrs: mustprogress nounwind uwtable
define noundef zeroext i1 @_ZNK4ofbx8DataVieweqEPKc(ptr noundef nonnull align 8 dereferenceable(17) %0, ptr noundef %1) #0 align 2 {
  %3 = alloca i1, align 1
  %4 = alloca ptr, align 8
  %5 = alloca ptr, align 8
  %6 = alloca ptr, align 8
  %7 = alloca ptr, align 8
  store ptr %0, ptr %4, align 8
  store ptr %1, ptr %5, align 8
  %8 = load ptr, ptr %4, align 8
  %9 = load ptr, ptr %5, align 8
  store ptr %9, ptr %6, align 8
  %10 = getelementptr inbounds %"struct.ofbx::DataView", ptr %8, i32 0, i32 0
  %11 = load ptr, ptr %10, align 8
  store ptr %11, ptr %7, align 8
  br label %12

12:                                               ; preds = %32, %2
  %13 = load ptr, ptr %6, align 8
  %14 = load i8, ptr %13, align 1
  %15 = icmp ne i8 %14, 0
  br i1 %15, label %16, label %21

16:                                               ; preds = %12
  %17 = load ptr, ptr %7, align 8
  %18 = getelementptr inbounds %"struct.ofbx::DataView", ptr %8, i32 0, i32 1
  %19 = load ptr, ptr %18, align 8
  %20 = icmp ne ptr %17, %19
  br label %21

21:                                               ; preds = %16, %12
  %22 = phi i1 [ false, %12 ], [ %20, %16 ]
  br i1 %22, label %23, label %37

23:                                               ; preds = %21
  %24 = load ptr, ptr %6, align 8
  %25 = load i8, ptr %24, align 1
  %26 = sext i8 %25 to i32
  %27 = load ptr, ptr %7, align 8
  %28 = load i8, ptr %27, align 1
  %29 = sext i8 %28 to i32
  %30 = icmp ne i32 %26, %29
  br i1 %30, label %31, label %32

31:                                               ; preds = %23
  store i1 false, ptr %3, align 1
  br label %49

32:                                               ; preds = %23
  %33 = load ptr, ptr %6, align 8
  %34 = getelementptr inbounds i8, ptr %33, i32 1
  store ptr %34, ptr %6, align 8
  %35 = load ptr, ptr %7, align 8
  %36 = getelementptr inbounds i8, ptr %35, i32 1
  store ptr %36, ptr %7, align 8
  br label %12, !llvm.loop !5

37:                                               ; preds = %21
  %38 = load ptr, ptr %7, align 8
  %39 = getelementptr inbounds %"struct.ofbx::DataView", ptr %8, i32 0, i32 1
  %40 = load ptr, ptr %39, align 8
  %41 = icmp eq ptr %38, %40
  br i1 %41, label %42, label %47

42:                                               ; preds = %37
  %43 = load ptr, ptr %6, align 8
  %44 = load i8, ptr %43, align 1
  %45 = sext i8 %44 to i32
  %46 = icmp eq i32 %45, 0
  br label %47

47:                                               ; preds = %42, %37
  %48 = phi i1 [ false, %37 ], [ %46, %42 ]
  store i1 %48, ptr %3, align 1
  br label %49

49:                                               ; preds = %47, %31
  %50 = load i1, ptr %3, align 1
  ret i1 %50
}

; Function Attrs: mustprogress nounwind uwtable
define internal noundef ptr @_ZN4ofbxL9findChildERKNS_7ElementEPKc(ptr noundef nonnull align 8 dereferenceable(56) %0, ptr noundef %1) #0 {
  %3 = alloca ptr, align 8
  %4 = alloca ptr, align 8
  %5 = alloca ptr, align 8
  %6 = alloca ptr, align 8
  store ptr %0, ptr %4, align 8
  store ptr %1, ptr %5, align 8
  %7 = load ptr, ptr %4, align 8
  %8 = getelementptr inbounds %"struct.ofbx::Element", ptr %7, i32 0, i32 2
  store ptr %8, ptr %6, align 8
  br label %9

9:                                                ; preds = %22, %2
  %10 = load ptr, ptr %6, align 8
  %11 = load ptr, ptr %10, align 8
  %12 = icmp ne ptr %11, null
  br i1 %12, label %13, label %26

13:                                               ; preds = %9
  %14 = load ptr, ptr %6, align 8
  %15 = load ptr, ptr %14, align 8
  %16 = getelementptr inbounds %"struct.ofbx::Element", ptr %15, i32 0, i32 1
  %17 = load ptr, ptr %5, align 8
  %18 = call noundef zeroext i1 @_ZNK4ofbx8DataVieweqEPKc(ptr noundef nonnull align 8 dereferenceable(17) %16, ptr noundef %17)
  br i1 %18, label %19, label %22

19:                                               ; preds = %13
  %20 = load ptr, ptr %6, align 8
  %21 = load ptr, ptr %20, align 8
  store ptr %21, ptr %3, align 8
  br label %27

22:                                               ; preds = %13
  %23 = load ptr, ptr %6, align 8
  %24 = load ptr, ptr %23, align 8
  %25 = getelementptr inbounds %"struct.ofbx::Element", ptr %24, i32 0, i32 3
  store ptr %25, ptr %6, align 8
  br label %9, !llvm.loop !8

26:                                               ; preds = %9
  store ptr null, ptr %3, align 8
  br label %27

27:                                               ; preds = %26, %19
  %28 = load ptr, ptr %3, align 8
  ret ptr %28
}

; Function Attrs: mustprogress nounwind uwtable
define noundef i32 @_ZNK4ofbx8DataView5toIntEv(ptr noundef nonnull align 8 dereferenceable(17) %0) #0 align 2 {
  %2 = alloca i32, align 4
  %3 = alloca ptr, align 8
  store ptr %0, ptr %3, align 8
  %4 = load ptr, ptr %3, align 8
  %5 = getelementptr inbounds %"struct.ofbx::DataView", ptr %4, i32 0, i32 2
  %6 = load i8, ptr %5, align 8
  %7 = trunc i8 %6 to i1
  br i1 %7, label %8, label %12

8:                                                ; preds = %1
  %9 = getelementptr inbounds %"struct.ofbx::DataView", ptr %4, i32 0, i32 0
  %10 = load ptr, ptr %9, align 8
  %11 = load i32, ptr %10, align 4
  store i32 %11, ptr %2, align 4
  br label %16

12:                                               ; preds = %1
  %13 = getelementptr inbounds %"struct.ofbx::DataView", ptr %4, i32 0, i32 0
  %14 = load ptr, ptr %13, align 8
  %15 = call i32 @atoi(ptr noundef %14) #14
  store i32 %15, ptr %2, align 4
  br label %16

16:                                               ; preds = %12, %8
  %17 = load i32, ptr %2, align 4
  ret i32 %17
}

; Function Attrs: mustprogress uwtable
define linkonce_odr noundef ptr @_ZNK4ofbx7Element11getPropertyEi(ptr noundef nonnull align 8 dereferenceable(56) %0, i32 noundef %1) #3 comdat align 2 {
  %3 = alloca ptr, align 8
  %4 = alloca ptr, align 8
  %5 = alloca i32, align 4
  %6 = alloca ptr, align 8
  %7 = alloca i32, align 4
  store ptr %0, ptr %4, align 8
  store i32 %1, ptr %5, align 4
  %8 = load ptr, ptr %4, align 8
  %9 = getelementptr inbounds %"struct.ofbx::Element", ptr %8, i32 0, i32 4
  %10 = load ptr, ptr %9, align 8
  store ptr %10, ptr %6, align 8
  store i32 0, ptr %7, align 4
  br label %11

11:                                               ; preds = %25, %2
  %12 = load i32, ptr %7, align 4
  %13 = load i32, ptr %5, align 4
  %14 = icmp slt i32 %12, %13
  br i1 %14, label %15, label %28

15:                                               ; preds = %11
  %16 = load ptr, ptr %6, align 8
  %17 = icmp eq ptr %16, null
  br i1 %17, label %18, label %19

18:                                               ; preds = %15
  store ptr null, ptr %3, align 8
  br label %30

19:                                               ; preds = %15
  %20 = load ptr, ptr %6, align 8
  %21 = load ptr, ptr %20, align 8
  %22 = getelementptr inbounds ptr, ptr %21, i64 3
  %23 = load ptr, ptr %22, align 8
  %24 = call noundef ptr %23(ptr noundef nonnull align 8 dereferenceable(8) %20)
  store ptr %24, ptr %6, align 8
  br label %25

25:                                               ; preds = %19
  %26 = load i32, ptr %7, align 4
  %27 = add nsw i32 %26, 1
  store i32 %27, ptr %7, align 4
  br label %11, !llvm.loop !17

28:                                               ; preds = %11
  %29 = load ptr, ptr %6, align 8
  store ptr %29, ptr %3, align 8
  br label %30

30:                                               ; preds = %28, %18
  %31 = load ptr, ptr %3, align 8
  ret ptr %31
}

; Function Attrs: mustprogress nounwind uwtable
define internal noundef ptr @_ZN4ofbxL15resolvePropertyERKNS_6ObjectEPKc(ptr noundef nonnull align 8 dereferenceable(176) %0, ptr noundef %1) #0 {
  %3 = alloca ptr, align 8
  %4 = alloca ptr, align 8
  %5 = alloca ptr, align 8
  %6 = alloca ptr, align 8
  %7 = alloca ptr, align 8
  store ptr %0, ptr %4, align 8
  store ptr %1, ptr %5, align 8
  %8 = load ptr, ptr %4, align 8
  %9 = getelementptr inbounds %"struct.ofbx::Object", ptr %8, i32 0, i32 3
  %10 = load ptr, ptr %9, align 8
  %11 = call noundef ptr @_ZN4ofbxL9findChildERKNS_7ElementEPKc(ptr noundef nonnull align 8 dereferenceable(56) %10, ptr noundef @.str.4)
  store ptr %11, ptr %6, align 8
  %12 = load ptr, ptr %6, align 8
  %13 = icmp ne ptr %12, null
  br i1 %13, label %15, label %14

14:                                               ; preds = %2
  store ptr null, ptr %3, align 8
  br label %41

15:                                               ; preds = %2
  %16 = load ptr, ptr %6, align 8
  %17 = getelementptr inbounds %"struct.ofbx::Element", ptr %16, i32 0, i32 2
  %18 = load ptr, ptr %17, align 8
  store ptr %18, ptr %7, align 8
  br label %19

19:                                               ; preds = %36, %15
  %20 = load ptr, ptr %7, align 8
  %21 = icmp ne ptr %20, null
  br i1 %21, label %22, label %40

22:                                               ; preds = %19
  %23 = load ptr, ptr %7, align 8
  %24 = getelementptr inbounds %"struct.ofbx::Element", ptr %23, i32 0, i32 4
  %25 = load ptr, ptr %24, align 8
  %26 = icmp ne ptr %25, null
  br i1 %26, label %27, label %36

27:                                               ; preds = %22
  %28 = load ptr, ptr %7, align 8
  %29 = getelementptr inbounds %"struct.ofbx::Element", ptr %28, i32 0, i32 4
  %30 = load ptr, ptr %29, align 8
  %31 = getelementptr inbounds %"struct.ofbx::Property", ptr %30, i32 0, i32 4
  %32 = load ptr, ptr %5, align 8
  %33 = call noundef zeroext i1 @_ZNK4ofbx8DataVieweqEPKc(ptr noundef nonnull align 8 dereferenceable(17) %31, ptr noundef %32)
  br i1 %33, label %34, label %36

34:                                               ; preds = %27
  %35 = load ptr, ptr %7, align 8
  store ptr %35, ptr %3, align 8
  br label %41

36:                                               ; preds = %27, %22
  %37 = load ptr, ptr %7, align 8
  %38 = getelementptr inbounds %"struct.ofbx::Element", ptr %37, i32 0, i32 3
  %39 = load ptr, ptr %38, align 8
  store ptr %39, ptr %7, align 8
  br label %19, !llvm.loop !16

40:                                               ; preds = %19
  store ptr null, ptr %3, align 8
  br label %41

41:                                               ; preds = %40, %34, %14
  %42 = load ptr, ptr %3, align 8
  ret ptr %42
}

; Function Attrs: mustprogress uwtable
define internal noundef i32 @_ZN4ofbxL19resolveEnumPropertyERKNS_6ObjectEPKci(ptr noundef nonnull align 8 dereferenceable(176) %0, ptr noundef %1, i32 noundef %2) #3 {
  %4 = alloca i32, align 4
  %5 = alloca ptr, align 8
  %6 = alloca ptr, align 8
  %7 = alloca i32, align 4
  %8 = alloca ptr, align 8
  %9 = alloca ptr, align 8
  store ptr %0, ptr %5, align 8
  store ptr %1, ptr %6, align 8
  store i32 %2, ptr %7, align 4
  %10 = load ptr, ptr %5, align 8
  %11 = load ptr, ptr %6, align 8
  %12 = call noundef ptr @_ZN4ofbxL15resolvePropertyERKNS_6ObjectEPKc(ptr noundef nonnull align 8 dereferenceable(176) %10, ptr noundef %11)
  store ptr %12, ptr %8, align 8
  %13 = load ptr, ptr %8, align 8
  %14 = icmp ne ptr %13, null
  br i1 %14, label %17, label %15

15:                                               ; preds = %3
  %16 = load i32, ptr %7, align 4
  store i32 %16, ptr %4, align 4
  br label %28

17:                                               ; preds = %3
  %18 = load ptr, ptr %8, align 8
  %19 = call noundef ptr @_ZNK4ofbx7Element11getPropertyEi(ptr noundef nonnull align 8 dereferenceable(56) %18, i32 noundef 4)
  store ptr %19, ptr %9, align 8
  %20 = load ptr, ptr %9, align 8
  %21 = icmp ne ptr %20, null
  br i1 %21, label %24, label %22

22:                                               ; preds = %17
  %23 = load i32, ptr %7, align 4
  store i32 %23, ptr %4, align 4
  br label %28

24:                                               ; preds = %17
  %25 = load ptr, ptr %9, align 8
  %26 = getelementptr inbounds %"struct.ofbx::Property", ptr %25, i32 0, i32 4
  %27 = call noundef i32 @_ZNK4ofbx8DataView5toIntEv(ptr noundef nonnull align 8 dereferenceable(17) %26)
  store i32 %27, ptr %4, align 4
  br label %28

28:                                               ; preds = %24, %22, %15
  %29 = load i32, ptr %4, align 4
  ret i32 %29
}

; Function Attrs: mustprogress uwtable
define noundef i32 @_ZNK4ofbx6Object16getRotationOrderEv(ptr noundef nonnull align 8 dereferenceable(176) %0) #3 align 2 {
  %2 = alloca ptr, align 8
  store ptr %0, ptr %2, align 8
  %3 = load ptr, ptr %2, align 8
  %4 = call noundef i32 @_ZN4ofbxL19resolveEnumPropertyERKNS_6ObjectEPKci(ptr noundef nonnull align 8 dereferenceable(176) %3, ptr noundef @.str.3, i32 noundef 0)
  ret i32 %4
}