; Function Attrs: mustprogress uwtable
define noundef i32 @_ZNK4ofbx6Object16getRotationOrderEv(ptr nocapture noundef nonnull readonly align 8 dereferenceable(176) %0) local_unnamed_addr #8 align 2 {
  %2 = getelementptr inbounds i8, ptr %0, i64 144
  %.val = load ptr, ptr %2, align 8
  %3 = getelementptr i8, ptr %.val, i64 32
  %.val.val = load ptr, ptr %3, align 8
  %.not10.i.i.i = icmp eq ptr %.val.val, null
  br i1 %.not10.i.i.i, label %_ZN4ofbxL19resolveEnumPropertyERKNS_6ObjectEPKci.exit, label %.lr.ph.split.i.i.i

.lr.ph.split.i.i.i:                               ; preds = %1, %_ZNK4ofbx8DataVieweqEPKc.exit.thread.i.i.i
  %4 = phi ptr [ %17, %_ZNK4ofbx8DataVieweqEPKc.exit.thread.i.i.i ], [ %.val.val, %1 ]
  %5 = getelementptr inbounds i8, ptr %4, i64 8
  %6 = load ptr, ptr %5, align 8
  %7 = getelementptr inbounds i8, ptr %4, i64 16
  %8 = load ptr, ptr %7, align 8
  %.not1420.i.i.i.i = icmp eq ptr %6, %8
  br i1 %.not1420.i.i.i.i, label %_ZNK4ofbx8DataVieweqEPKc.exit.thread.i.i.i, label %.lr.ph.i.i.i.i

.lr.ph.i.i.i.i:                                   ; preds = %.lr.ph.split.i.i.i, %11
  %9 = phi i8 [ %14, %11 ], [ 80, %.lr.ph.split.i.i.i ]
  %.023.i.i.i.i = phi ptr [ %13, %11 ], [ %6, %.lr.ph.split.i.i.i ]
  %.01122.i.i.i.i = phi ptr [ %12, %11 ], [ @.str.4, %.lr.ph.split.i.i.i ]
  %10 = load i8, ptr %.023.i.i.i.i, align 1
  %.not15.i.i.i.i = icmp eq i8 %9, %10
  br i1 %.not15.i.i.i.i, label %11, label %_ZNK4ofbx8DataVieweqEPKc.exit.thread.i.i.i

11:                                               ; preds = %.lr.ph.i.i.i.i
  %12 = getelementptr inbounds i8, ptr %.01122.i.i.i.i, i64 1
  %13 = getelementptr inbounds i8, ptr %.023.i.i.i.i, i64 1
  %14 = load i8, ptr %12, align 1
  %.not.i.i.i.i = icmp eq i8 %14, 0
  %.not14.i.i.i.i = icmp eq ptr %13, %8
  %or.cond.i.i.i.i = select i1 %.not.i.i.i.i, i1 true, i1 %.not14.i.i.i.i
  br i1 %or.cond.i.i.i.i, label %_ZNK4ofbx8DataVieweqEPKc.exit.i.i.i, label %.lr.ph.i.i.i.i, !llvm.loop !5

_ZNK4ofbx8DataVieweqEPKc.exit.i.i.i:              ; preds = %11
  %15 = and i1 %.not14.i.i.i.i, %.not.i.i.i.i
  br i1 %15, label %_ZN4ofbxL9findChildERKNS_7ElementEPKc.exit.i.i, label %_ZNK4ofbx8DataVieweqEPKc.exit.thread.i.i.i

_ZNK4ofbx8DataVieweqEPKc.exit.thread.i.i.i:       ; preds = %.lr.ph.i.i.i.i, %_ZNK4ofbx8DataVieweqEPKc.exit.i.i.i, %.lr.ph.split.i.i.i
  %16 = getelementptr inbounds i8, ptr %4, i64 40
  %17 = load ptr, ptr %16, align 8
  %.not.i.i.i = icmp eq ptr %17, null
  br i1 %.not.i.i.i, label %_ZN4ofbxL19resolveEnumPropertyERKNS_6ObjectEPKci.exit, label %.lr.ph.split.i.i.i, !llvm.loop !8

_ZN4ofbxL9findChildERKNS_7ElementEPKc.exit.i.i:   ; preds = %_ZNK4ofbx8DataVieweqEPKc.exit.i.i.i
  %18 = getelementptr inbounds i8, ptr %4, i64 32
  %.06.i.i = load ptr, ptr %18, align 8
  %.not137.i.i = icmp eq ptr %.06.i.i, null
  br i1 %.not137.i.i, label %_ZN4ofbxL19resolveEnumPropertyERKNS_6ObjectEPKci.exit, label %.lr.ph.i.i

.lr.ph.i.i:                                       ; preds = %_ZN4ofbxL9findChildERKNS_7ElementEPKc.exit.i.i, %_ZNK4ofbx8DataVieweqEPKc.exit.thread.i.i
  %.08.i.i = phi ptr [ %.0.i.i, %_ZNK4ofbx8DataVieweqEPKc.exit.thread.i.i ], [ %.06.i.i, %_ZN4ofbxL9findChildERKNS_7ElementEPKc.exit.i.i ]
  %19 = getelementptr inbounds i8, ptr %.08.i.i, i64 48
  %20 = load ptr, ptr %19, align 8
  %.not14.i.i = icmp eq ptr %20, null
  br i1 %.not14.i.i, label %_ZNK4ofbx8DataVieweqEPKc.exit.thread.i.i, label %21

21:                                               ; preds = %.lr.ph.i.i
  %22 = getelementptr inbounds i8, ptr %20, i64 16
  %23 = load ptr, ptr %22, align 8
  %24 = getelementptr inbounds i8, ptr %20, i64 24
  %25 = load ptr, ptr %24, align 8
  %.not1420.i.i.i = icmp eq ptr %23, %25
  br i1 %.not1420.i.i.i, label %_ZNK4ofbx8DataVieweqEPKc.exit.thread.i.i, label %.lr.ph.i15.i.i

.lr.ph.i15.i.i:                                   ; preds = %21, %28
  %26 = phi i8 [ %31, %28 ], [ 82, %21 ]
  %.023.i.i.i = phi ptr [ %30, %28 ], [ %23, %21 ]
  %.01122.i.i.i = phi ptr [ %29, %28 ], [ @.str.3, %21 ]
  %27 = load i8, ptr %.023.i.i.i, align 1
  %.not15.i.i.i = icmp eq i8 %26, %27
  br i1 %.not15.i.i.i, label %28, label %_ZNK4ofbx8DataVieweqEPKc.exit.thread.i.i

28:                                               ; preds = %.lr.ph.i15.i.i
  %29 = getelementptr inbounds i8, ptr %.01122.i.i.i, i64 1
  %30 = getelementptr inbounds i8, ptr %.023.i.i.i, i64 1
  %31 = load i8, ptr %29, align 1
  %.not.i16.i.i = icmp eq i8 %31, 0
  %.not14.i.i.i = icmp eq ptr %30, %25
  %or.cond.i.i.i = select i1 %.not.i16.i.i, i1 true, i1 %.not14.i.i.i
  br i1 %or.cond.i.i.i, label %_ZNK4ofbx8DataVieweqEPKc.exit.i.i, label %.lr.ph.i15.i.i, !llvm.loop !5

_ZNK4ofbx8DataVieweqEPKc.exit.i.i:                ; preds = %28
  %spec.select.i.i.i = and i1 %.not14.i.i.i, %.not.i16.i.i
  br i1 %spec.select.i.i.i, label %.lr.ph.i11.i, label %_ZNK4ofbx8DataVieweqEPKc.exit.thread.i.i

_ZNK4ofbx8DataVieweqEPKc.exit.thread.i.i:         ; preds = %.lr.ph.i15.i.i, %_ZNK4ofbx8DataVieweqEPKc.exit.i.i, %21, %.lr.ph.i.i
  %32 = getelementptr inbounds i8, ptr %.08.i.i, i64 40
  %.0.i.i = load ptr, ptr %32, align 8
  %.not13.i.i = icmp eq ptr %.0.i.i, null
  br i1 %.not13.i.i, label %_ZN4ofbxL19resolveEnumPropertyERKNS_6ObjectEPKci.exit, label %.lr.ph.i.i, !llvm.loop !16

.lr.ph.i11.i:                                     ; preds = %_ZNK4ofbx8DataVieweqEPKc.exit.i.i, %34
  %.010.i12.i = phi i32 [ %39, %34 ], [ 0, %_ZNK4ofbx8DataVieweqEPKc.exit.i.i ]
  %.079.i.i = phi ptr [ %38, %34 ], [ %20, %_ZNK4ofbx8DataVieweqEPKc.exit.i.i ]
  %33 = icmp eq ptr %.079.i.i, null
  br i1 %33, label %_ZN4ofbxL19resolveEnumPropertyERKNS_6ObjectEPKci.exit, label %34

34:                                               ; preds = %.lr.ph.i11.i
  %35 = load ptr, ptr %.079.i.i, align 8
  %36 = getelementptr inbounds i8, ptr %35, i64 24
  %37 = load ptr, ptr %36, align 8
  %38 = tail call noundef ptr %37(ptr noundef nonnull align 8 dereferenceable(8) %.079.i.i)
  %39 = add nuw nsw i32 %.010.i12.i, 1
  %exitcond.not.i.i = icmp eq i32 %39, 4
  br i1 %exitcond.not.i.i, label %_ZNK4ofbx7Element11getPropertyEi.exit.i, label %.lr.ph.i11.i, !llvm.loop !17

_ZNK4ofbx7Element11getPropertyEi.exit.i:          ; preds = %34
  %.not10.i = icmp eq ptr %38, null
  br i1 %.not10.i, label %_ZN4ofbxL19resolveEnumPropertyERKNS_6ObjectEPKci.exit, label %40

40:                                               ; preds = %_ZNK4ofbx7Element11getPropertyEi.exit.i
  %41 = getelementptr inbounds i8, ptr %38, i64 16
  %42 = getelementptr inbounds i8, ptr %38, i64 32
  %43 = load i8, ptr %42, align 8
  %44 = and i8 %43, 1
  %.not.i.i = icmp eq i8 %44, 0
  %45 = load ptr, ptr %41, align 8
  br i1 %.not.i.i, label %48, label %46

46:                                               ; preds = %40
  %47 = load i32, ptr %45, align 4
  br label %_ZN4ofbxL19resolveEnumPropertyERKNS_6ObjectEPKci.exit

48:                                               ; preds = %40
  %49 = tail call i32 @atoi(ptr nocapture noundef %45) #30
  br label %_ZN4ofbxL19resolveEnumPropertyERKNS_6ObjectEPKci.exit

_ZN4ofbxL19resolveEnumPropertyERKNS_6ObjectEPKci.exit: ; preds = %_ZNK4ofbx8DataVieweqEPKc.exit.thread.i.i.i, %_ZNK4ofbx8DataVieweqEPKc.exit.thread.i.i, %.lr.ph.i11.i, %1, %_ZN4ofbxL9findChildERKNS_7ElementEPKc.exit.i.i, %_ZNK4ofbx7Element11getPropertyEi.exit.i, %46, %48
  %.0.i = phi i32 [ 0, %_ZNK4ofbx7Element11getPropertyEi.exit.i ], [ %47, %46 ], [ %49, %48 ], [ 0, %1 ], [ 0, %_ZN4ofbxL9findChildERKNS_7ElementEPKc.exit.i.i ], [ 0, %.lr.ph.i11.i ], [ 0, %_ZNK4ofbx8DataVieweqEPKc.exit.thread.i.i ], [ 0, %_ZNK4ofbx8DataVieweqEPKc.exit.thread.i.i.i ]
  ret i32 %.0.i
}